target datalayout = "e-m:e-p270:32:32-p271:32:32-p272:64:64-i64:64-i128:128-f80:128-n8:16:32:64-S128"
target triple = "x86_64-pc-linux-gnu"

%struct.dict = type { ptr, [2 x ptr], [2 x i64], i64, i16, [2 x i8], i16, [0 x ptr] }

@lazyfree_objects = internal global i64 0, align 8

; Function Attrs: nounwind uwtable
define dso_local void @freeLuaScriptsAsync(ptr noundef %0, ptr noundef %1, ptr noundef %2) #0 {
  %4 = alloca ptr, align 8
  %5 = alloca ptr, align 8
  %6 = alloca ptr, align 8
  %7 = alloca i64, align 8
  %8 = alloca i64, align 8
  store ptr %0, ptr %4, align 8, !tbaa !17
  store ptr %1, ptr %5, align 8, !tbaa !19
  store ptr %2, ptr %6, align 8, !tbaa !21
  %9 = load ptr, ptr %4, align 8, !tbaa !17
  %10 = getelementptr inbounds nuw %struct.dict, ptr %9, i32 0, i32 2
  %11 = getelementptr inbounds [2 x i64], ptr %10, i64 0, i64 0
  %12 = load i64, ptr %11, align 8, !tbaa !11
  %13 = load ptr, ptr %4, align 8, !tbaa !17
  %14 = getelementptr inbounds nuw %struct.dict, ptr %13, i32 0, i32 2
  %15 = getelementptr inbounds [2 x i64], ptr %14, i64 0, i64 1
  %16 = load i64, ptr %15, align 8, !tbaa !11
  %17 = add i64 %12, %16
  %18 = icmp ugt i64 %17, 64
  br i1 %18, label %19, label %34

19:                                               ; preds = %3
  %20 = load ptr, ptr %4, align 8, !tbaa !17
  %21 = getelementptr inbounds nuw %struct.dict, ptr %20, i32 0, i32 2
  %22 = getelementptr inbounds [2 x i64], ptr %21, i64 0, i64 0
  %23 = load i64, ptr %22, align 8, !tbaa !11
  %24 = load ptr, ptr %4, align 8, !tbaa !17
  %25 = getelementptr inbounds nuw %struct.dict, ptr %24, i32 0, i32 2
  %26 = getelementptr inbounds [2 x i64], ptr %25, i64 0, i64 1
  %27 = load i64, ptr %26, align 8, !tbaa !11
  %28 = add i64 %23, %27
  store i64 %28, ptr %7, align 8, !tbaa !11
  %29 = load i64, ptr %7, align 8
  %30 = atomicrmw add ptr @lazyfree_objects, i64 %29 monotonic, align 8
  store i64 %30, ptr %8, align 8
  %31 = load ptr, ptr %4, align 8, !tbaa !17
  %32 = load ptr, ptr %5, align 8, !tbaa !19
  %33 = load ptr, ptr %6, align 8, !tbaa !21
  call void (ptr, i32, ...) @bioCreateLazyFreeJob(ptr noundef @lazyFreeLuaScripts, i32 noundef 3, ptr noundef %31, ptr noundef %32, ptr noundef %33)
  br label %38

34:                                               ; preds = %3
  %35 = load ptr, ptr %4, align 8, !tbaa !17
  %36 = load ptr, ptr %5, align 8, !tbaa !19
  %37 = load ptr, ptr %6, align 8, !tbaa !21
  call void @freeLuaScriptsSync(ptr noundef %35, ptr noundef %36, ptr noundef %37)
  br label %38

38:                                               ; preds = %34, %19
  ret void
}