; Function Attrs: nounwind uwtable
define dso_local void @freeLuaScriptsAsync(ptr noundef %0, ptr noundef %1, ptr noundef %2) local_unnamed_addr #0 {
  %4 = getelementptr inbounds nuw i8, ptr %0, i64 24
  %5 = load i64, ptr %4, align 8, !tbaa !9
  %6 = getelementptr inbounds nuw i8, ptr %0, i64 32
  %7 = load i64, ptr %6, align 8, !tbaa !9
  %8 = add i64 %7, %5
  %9 = icmp ugt i64 %8, 64
  br i1 %9, label %10, label %12

10:                                               ; preds = %3
  %11 = atomicrmw add ptr @lazyfree_objects, i64 %8 monotonic, align 8
  tail call void (ptr, i32, ...) @bioCreateLazyFreeJob(ptr noundef nonnull @lazyFreeLuaScripts, i32 noundef 3, ptr noundef nonnull %0, ptr noundef %1, ptr noundef %2) #6
  br label %13

12:                                               ; preds = %3
  tail call void @freeLuaScriptsSync(ptr noundef nonnull %0, ptr noundef %1, ptr noundef %2) #6
  br label %13

13:                                               ; preds = %12, %10
  ret void
}